; Function Attrs: mustprogress nofree norecurse nosync nounwind willreturn memory(argmem: read) uwtable
define internal range(i32 0, 2) i32 @vp8_need_keyframe(ptr noundef readonly captures(none) %0) #2 {
  %2 = getelementptr inbounds nuw i8, ptr %0, i64 36
  %3 = load i32, ptr %2, align 4, !tbaa !26
  %.not = icmp eq i32 %3, 0
  br i1 %.not, label %4, label %8

4:                                                ; preds = %1
  %5 = getelementptr inbounds nuw i8, ptr %0, i64 16
  %6 = load i32, ptr %5, align 8, !tbaa !4
  %.not2 = icmp eq i32 %6, 0
  %7 = zext i1 %.not2 to i32
  br label %8

8:                                                ; preds = %4, %1
  %9 = phi i32 [ 1, %1 ], [ %7, %4 ]
  ret i32 %9
}